target datalayout = "e-m:e-p270:32:32-p271:32:32-p272:64:64-i64:64-i128:128-f80:128-n8:16:32:64-S128"
target triple = "x86_64-pc-linux-gnu"

%"class.icu_77::UObject" = type { ptr }
%"class.icu_77::Locale" = type <{ %"class.icu_77::UObject", [12 x i8], [6 x i8], [4 x i8], [2 x i8], i32, [4 x i8], ptr, [157 x i8], [3 x i8], ptr, i8, [7 x i8] }>
%"class.icu_77::RelativeDateTimeFormatter" = type { %"class.icu_77::UObject", ptr, ptr, ptr, i32, i32, ptr, %"class.icu_77::Locale" }

@_ZTVN6icu_777UObjectE = available_externally unnamed_addr constant { [5 x ptr] } { [5 x ptr] [ptr null, ptr @_ZTIN6icu_777UObjectE, ptr @_ZN6icu_777UObjectD1Ev, ptr @_ZN6icu_777UObjectD0Ev, ptr @_ZNK6icu_777UObject17getDynamicClassIDEv] }, align 8

; Function Attrs: inlinehint mustprogress nounwind uwtable
define internal noundef signext i8 @_ZL9U_FAILURE10UErrorCode(i32 noundef %0) #2 {
  %2 = alloca i32, align 4
  store i32 %0, ptr %2, align 4, !tbaa !15
  %3 = load i32, ptr %2, align 4, !tbaa !15
  %4 = icmp sgt i32 %3, 0
  %5 = zext i1 %4 to i8
  ret i8 %5
}

; Function Attrs: inlinehint mustprogress nounwind uwtable
define linkonce_odr void @_ZN6icu_777UObjectC2Ev(ptr noundef nonnull align 8 dereferenceable(8) %0) unnamed_addr #2 comdat align 2 {
  %2 = alloca ptr, align 8
  store ptr %0, ptr %2, align 8, !tbaa !108
  %3 = load ptr, ptr %2, align 8
  store ptr getelementptr inbounds inrange(-16, 24) ({ [5 x ptr] }, ptr @_ZTVN6icu_777UObjectE, i32 0, i32 0, i32 2), ptr %3, align 8, !tbaa !25
  ret void
}

; Function Attrs: mustprogress uwtable
define void @_ZN6icu_7725RelativeDateTimeFormatterC2ERKNS_6LocaleEPNS_12NumberFormatE35UDateRelativeDateTimeFormatterStyle15UDisplayContextR10UErrorCode(ptr noundef nonnull align 8 dereferenceable(272) %0, ptr noundef nonnull align 8 dereferenceable(217) %1, ptr noundef %2, i32 noundef %3, i32 noundef %4, ptr noundef nonnull align 4 dereferenceable(4) %5) unnamed_addr #1 align 2 personality ptr @__gxx_personality_v0 {
  %7 = alloca ptr, align 8
  %8 = alloca ptr, align 8
  %9 = alloca ptr, align 8
  %10 = alloca i32, align 4
  %11 = alloca i32, align 4
  %12 = alloca ptr, align 8
  %13 = alloca ptr, align 8
  %14 = alloca i32, align 4
  %15 = alloca ptr, align 8
  %16 = alloca i32, align 4
  store ptr %0, ptr %7, align 8, !tbaa !94
  store ptr %1, ptr %8, align 8, !tbaa !58
  store ptr %2, ptr %9, align 8, !tbaa !110
  store i32 %3, ptr %10, align 4, !tbaa !117
  store i32 %4, ptr %11, align 4, !tbaa !118
  store ptr %5, ptr %12, align 8, !tbaa !22
  %17 = load ptr, ptr %7, align 8
  call void @_ZN6icu_777UObjectC2Ev(ptr noundef nonnull align 8 dereferenceable(8) %17) #12
  store ptr getelementptr inbounds inrange(-16, 24) ({ [5 x ptr] }, ptr @_ZTVN6icu_7725RelativeDateTimeFormatterE, i32 0, i32 0, i32 2), ptr %17, align 8, !tbaa !25
  %18 = getelementptr inbounds nuw %"class.icu_77::RelativeDateTimeFormatter", ptr %17, i32 0, i32 1
  store ptr null, ptr %18, align 8, !tbaa !96
  %19 = getelementptr inbounds nuw %"class.icu_77::RelativeDateTimeFormatter", ptr %17, i32 0, i32 2
  store ptr null, ptr %19, align 8, !tbaa !103
  %20 = getelementptr inbounds nuw %"class.icu_77::RelativeDateTimeFormatter", ptr %17, i32 0, i32 3
  store ptr null, ptr %20, align 8, !tbaa !104
  %21 = getelementptr inbounds nuw %"class.icu_77::RelativeDateTimeFormatter", ptr %17, i32 0, i32 4
  %22 = load i32, ptr %10, align 4, !tbaa !117
  store i32 %22, ptr %21, align 8, !tbaa !105
  %23 = getelementptr inbounds nuw %"class.icu_77::RelativeDateTimeFormatter", ptr %17, i32 0, i32 5
  %24 = load i32, ptr %11, align 4, !tbaa !118
  store i32 %24, ptr %23, align 4, !tbaa !106
  %25 = getelementptr inbounds nuw %"class.icu_77::RelativeDateTimeFormatter", ptr %17, i32 0, i32 6
  store ptr null, ptr %25, align 8, !tbaa !107
  %26 = getelementptr inbounds nuw %"class.icu_77::RelativeDateTimeFormatter", ptr %17, i32 0, i32 7
  %27 = load ptr, ptr %8, align 8, !tbaa !58
  invoke void @_ZN6icu_776LocaleC1ERKS0_(ptr noundef nonnull align 8 dereferenceable(217) %26, ptr noundef nonnull align 8 dereferenceable(217) %27)
          to label %28 unwind label %35

28:                                               ; preds = %6
  %29 = load ptr, ptr %12, align 8, !tbaa !22
  %30 = load i32, ptr %29, align 4, !tbaa !15
  %31 = invoke noundef signext i8 @_ZL9U_FAILURE10UErrorCode(i32 noundef %30)
          to label %32 unwind label %39

32:                                               ; preds = %28
  %33 = icmp ne i8 %31, 0
  br i1 %33, label %34, label %43

34:                                               ; preds = %32
  br label %87

35:                                               ; preds = %6
  %36 = landingpad { ptr, i32 }
          cleanup
  %37 = extractvalue { ptr, i32 } %36, 0
  store ptr %37, ptr %13, align 8
  %38 = extractvalue { ptr, i32 } %36, 1
  store i32 %38, ptr %14, align 4
  br label %89

39:                                               ; preds = %83, %28
  %40 = landingpad { ptr, i32 }
          cleanup
  %41 = extractvalue { ptr, i32 } %40, 0
  store ptr %41, ptr %13, align 8
  %42 = extractvalue { ptr, i32 } %40, 1
  store i32 %42, ptr %14, align 4
  br label %88

43:                                               ; preds = %32
  %44 = load i32, ptr %10, align 4, !tbaa !117
  %45 = icmp slt i32 %44, 0
  br i1 %45, label %49, label %46

46:                                               ; preds = %43
  %47 = load i32, ptr %10, align 4, !tbaa !117
  %48 = icmp sle i32 3, %47
  br i1 %48, label %49, label %51

49:                                               ; preds = %46, %43
  %50 = load ptr, ptr %12, align 8, !tbaa !22
  store i32 1, ptr %50, align 4, !tbaa !15
  br label %87

51:                                               ; preds = %46
  %52 = load i32, ptr %11, align 4, !tbaa !118
  %53 = ashr i32 %52, 8
  %54 = icmp ne i32 %53, 1
  br i1 %54, label %55, label %57

55:                                               ; preds = %51
  %56 = load ptr, ptr %12, align 8, !tbaa !22
  store i32 1, ptr %56, align 4, !tbaa !15
  br label %87

57:                                               ; preds = %51
  %58 = load i32, ptr %11, align 4, !tbaa !118
  %59 = icmp eq i32 %58, 258
  br i1 %59, label %60, label %83

60:                                               ; preds = %57
  call void @llvm.lifetime.start.p0(i64 8, ptr %15) #12
  %61 = load ptr, ptr %8, align 8, !tbaa !58
  %62 = load ptr, ptr %12, align 8, !tbaa !22
  %63 = invoke noundef ptr @_ZN6icu_7713BreakIterator22createSentenceInstanceERKNS_6LocaleER10UErrorCode(ptr noundef nonnull align 8 dereferenceable(217) %61, ptr noundef nonnull align 4 dereferenceable(4) %62)
          to label %64 unwind label %71

64:                                               ; preds = %60
  store ptr %63, ptr %15, align 8, !tbaa !112
  %65 = load ptr, ptr %12, align 8, !tbaa !22
  %66 = load i32, ptr %65, align 4, !tbaa !15
  %67 = invoke noundef signext i8 @_ZL9U_FAILURE10UErrorCode(i32 noundef %66)
          to label %68 unwind label %71

68:                                               ; preds = %64
  %69 = icmp ne i8 %67, 0
  br i1 %69, label %70, label %75

70:                                               ; preds = %68
  store i32 1, ptr %16, align 4
  br label %80

71:                                               ; preds = %75, %64, %60
  %72 = landingpad { ptr, i32 }
          cleanup
  %73 = extractvalue { ptr, i32 } %72, 0
  store ptr %73, ptr %13, align 8
  %74 = extractvalue { ptr, i32 } %72, 1
  store i32 %74, ptr %14, align 4
  call void @llvm.lifetime.end.p0(i64 8, ptr %15) #12
  br label %88

75:                                               ; preds = %68
  %76 = load ptr, ptr %9, align 8, !tbaa !110
  %77 = load ptr, ptr %15, align 8, !tbaa !112
  %78 = load ptr, ptr %12, align 8, !tbaa !22
  invoke void @_ZN6icu_7725RelativeDateTimeFormatter4initEPNS_12NumberFormatEPNS_13BreakIteratorER10UErrorCode(ptr noundef nonnull align 8 dereferenceable(272) %17, ptr noundef %76, ptr noundef %77, ptr noundef nonnull align 4 dereferenceable(4) %78)
          to label %79 unwind label %71

79:                                               ; preds = %75
  store i32 0, ptr %16, align 4
  br label %80

80:                                               ; preds = %79, %70
  call void @llvm.lifetime.end.p0(i64 8, ptr %15) #12
  %81 = load i32, ptr %16, align 4
  switch i32 %81, label %95 [
    i32 0, label %82
    i32 1, label %87
  ]

82:                                               ; preds = %80
  br label %87

83:                                               ; preds = %57
  %84 = load ptr, ptr %9, align 8, !tbaa !110
  %85 = load ptr, ptr %12, align 8, !tbaa !22
  invoke void @_ZN6icu_7725RelativeDateTimeFormatter4initEPNS_12NumberFormatEPNS_13BreakIteratorER10UErrorCode(ptr noundef nonnull align 8 dereferenceable(272) %17, ptr noundef %84, ptr noundef null, ptr noundef nonnull align 4 dereferenceable(4) %85)
          to label %86 unwind label %39

86:                                               ; preds = %83
  br label %87

87:                                               ; preds = %34, %49, %55, %80, %86, %82
  ret void

88:                                               ; preds = %71, %39
  call void @_ZN6icu_776LocaleD1Ev(ptr noundef nonnull align 8 dereferenceable(217) %26) #12
  br label %89

89:                                               ; preds = %88, %35
  call void @_ZN6icu_777UObjectD2Ev(ptr noundef nonnull align 8 dereferenceable(8) %17) #12
  br label %90

90:                                               ; preds = %89
  %91 = load ptr, ptr %13, align 8
  %92 = load i32, ptr %14, align 4
  %93 = insertvalue { ptr, i32 } poison, ptr %91, 0
  %94 = insertvalue { ptr, i32 } %93, i32 %92, 1
  resume { ptr, i32 } %94

95:                                               ; preds = %80
  unreachable
}