; Function Attrs: mustprogress uwtable
define void @_ZN6icu_7725RelativeDateTimeFormatterC2ERKNS_6LocaleEPNS_12NumberFormatE35UDateRelativeDateTimeFormatterStyle15UDisplayContextR10UErrorCode(ptr noundef nonnull align 8 dereferenceable(272) initializes((0, 48)) %0, ptr noundef nonnull align 8 dereferenceable(217) %1, ptr noundef %2, i32 noundef %3, i32 noundef %4, ptr noundef nonnull align 4 dereferenceable(4) %5) unnamed_addr #1 align 2 personality ptr @__gxx_personality_v0 {
  store ptr getelementptr inbounds nuw inrange(-16, 24) (i8, ptr @_ZTVN6icu_7725RelativeDateTimeFormatterE, i64 16), ptr %0, align 8, !tbaa !15
  %7 = getelementptr inbounds nuw i8, ptr %0, i64 8
  %8 = getelementptr inbounds nuw i8, ptr %0, i64 32
  tail call void @llvm.memset.p0.i64(ptr noundef nonnull align 8 dereferenceable(24) %7, i8 0, i64 24, i1 false)
  store i32 %3, ptr %8, align 8, !tbaa !86
  %9 = getelementptr inbounds nuw i8, ptr %0, i64 36
  store i32 %4, ptr %9, align 4, !tbaa !72
  %10 = getelementptr inbounds nuw i8, ptr %0, i64 40
  store ptr null, ptr %10, align 8, !tbaa !79
  %11 = getelementptr inbounds nuw i8, ptr %0, i64 48
  invoke void @_ZN6icu_776LocaleC1ERKS0_(ptr noundef nonnull align 8 dereferenceable(217) %11, ptr noundef nonnull align 8 dereferenceable(217) %1)
          to label %12 unwind label %15

12:                                               ; preds = %6
  %13 = load i32, ptr %5, align 4, !tbaa !13
  %14 = icmp slt i32 %13, 1
  br i1 %14, label %19, label %31

15:                                               ; preds = %6
  %16 = landingpad { ptr, i32 }
          cleanup
  br label %33

17:                                               ; preds = %30
  %18 = landingpad { ptr, i32 }
          cleanup
  br label %32

19:                                               ; preds = %12
  %or.cond = icmp ult i32 %3, 3
  %.mask = and i32 %4, -256
  %.not23 = icmp eq i32 %.mask, 256
  %or.cond27 = and i1 %or.cond, %.not23
  br i1 %or.cond27, label %20, label %.sink.split

20:                                               ; preds = %19
  %21 = icmp eq i32 %4, 258
  br i1 %21, label %22, label %30

22:                                               ; preds = %20
  %23 = invoke noundef ptr @_ZN6icu_7713BreakIterator22createSentenceInstanceERKNS_6LocaleER10UErrorCode(ptr noundef nonnull align 8 dereferenceable(217) %1, ptr noundef nonnull align 4 dereferenceable(4) %5)
          to label %24 unwind label %27

24:                                               ; preds = %22
  %25 = load i32, ptr %5, align 4, !tbaa !13
  %26 = icmp slt i32 %25, 1
  br i1 %26, label %29, label %31

27:                                               ; preds = %29, %22
  %28 = landingpad { ptr, i32 }
          cleanup
  br label %32

29:                                               ; preds = %24
  invoke void @_ZN6icu_7725RelativeDateTimeFormatter4initEPNS_12NumberFormatEPNS_13BreakIteratorER10UErrorCode(ptr noundef nonnull align 8 dereferenceable(272) %0, ptr noundef %2, ptr noundef %23, ptr noundef nonnull align 4 dereferenceable(4) %5)
          to label %31 unwind label %27

30:                                               ; preds = %20
  invoke void @_ZN6icu_7725RelativeDateTimeFormatter4initEPNS_12NumberFormatEPNS_13BreakIteratorER10UErrorCode(ptr noundef nonnull align 8 dereferenceable(272) %0, ptr noundef %2, ptr noundef null, ptr noundef nonnull align 4 dereferenceable(4) %5)
          to label %31 unwind label %17

.sink.split:                                      ; preds = %19
  store i32 1, ptr %5, align 4, !tbaa !13
  br label %31

31:                                               ; preds = %.sink.split, %24, %29, %30, %12
  ret void

32:                                               ; preds = %27, %17
  %.pn = phi { ptr, i32 } [ %28, %27 ], [ %18, %17 ]
  tail call void @_ZN6icu_776LocaleD1Ev(ptr noundef nonnull align 8 dereferenceable(217) %11) #20
  br label %33

33:                                               ; preds = %32, %15
  %.pn.pn = phi { ptr, i32 } [ %.pn, %32 ], [ %16, %15 ]
  tail call void @_ZN6icu_777UObjectD2Ev(ptr noundef nonnull align 8 dereferenceable(8) %0) #20
  resume { ptr, i32 } %.pn.pn
}